; Function Attrs: mustprogress nofree norecurse nosync nounwind willreturn memory(read, inaccessiblemem: none) uwtable
define hidden noundef i32 @_ZNK10ValueStack19stack_size_for_copyENS_4KindE(ptr nocapture noundef nonnull readonly align 8 dereferenceable(81) %0, i32 noundef %1) local_unnamed_addr #2 align 2 {
  %3 = add i32 %1, -6
  %or.cond = icmp ult i32 %3, -2
  br i1 %or.cond, label %4, label %15

4:                                                ; preds = %2
  %5 = icmp eq i32 %1, 0
  br i1 %5, label %6, label %12

6:                                                ; preds = %4
  %7 = load ptr, ptr %0, align 8
  %8 = getelementptr inbounds i8, ptr %7, i64 24
  %9 = load ptr, ptr %8, align 8
  %10 = getelementptr inbounds i8, ptr %9, i64 76
  %11 = load i32, ptr %10, align 4
  br label %15

12:                                               ; preds = %4
  %13 = getelementptr inbounds i8, ptr %0, i64 48
  %14 = load i32, ptr %13, align 8
  br label %15

15:                                               ; preds = %2, %12, %6
  %.0 = phi i32 [ %11, %6 ], [ %14, %12 ], [ 0, %2 ]
  ret i32 %.0
}